; Function Attrs: nounwind uwtable
define noalias noundef ptr @Llb_ManCutSupps(ptr noundef %0, ptr noundef readonly captures(none) %1) local_unnamed_addr #0 {
Vec_PtrPush.exit:
  %2 = tail call noalias dereferenceable_or_null(16) ptr @malloc(i64 noundef 16) #20
  %3 = getelementptr inbounds nuw i8, ptr %2, i64 4
  store i32 100, ptr %2, align 8, !tbaa !3
  %4 = tail call noalias dereferenceable_or_null(800) ptr @malloc(i64 noundef 800) #20
  %5 = getelementptr inbounds nuw i8, ptr %2, i64 8
  store ptr %4, ptr %5, align 8, !tbaa !9
  %calloc = tail call dereferenceable_or_null(16) ptr @calloc(i64 1, i64 16)
  store i32 1, ptr %3, align 4, !tbaa !10
  store ptr %calloc, ptr %4, align 8, !tbaa !11
  %6 = getelementptr i8, ptr %1, i64 8
  %7 = getelementptr i8, ptr %1, i64 4
  %.val1523 = load i32, ptr %7, align 4, !tbaa !10
  %8 = icmp sgt i32 %.val1523, 1
  br i1 %8, label %.lr.ph.preheader, label %.critedge

.lr.ph.preheader:                                 ; preds = %Vec_PtrPush.exit
  %.val = load ptr, ptr %6, align 8, !tbaa !9
  %9 = load ptr, ptr %.val, align 8, !tbaa !11
  br label %.lr.ph

.lr.ph:                                           ; preds = %.lr.ph.preheader, %Vec_PtrPush.exit22
  %10 = phi i32 [ 100, %.lr.ph.preheader ], [ %36, %Vec_PtrPush.exit22 ]
  %11 = phi i32 [ 1, %.lr.ph.preheader ], [ %38, %Vec_PtrPush.exit22 ]
  %indvars.iv = phi i64 [ 1, %.lr.ph.preheader ], [ %indvars.iv.next, %Vec_PtrPush.exit22 ]
  %.01324 = phi ptr [ %9, %.lr.ph.preheader ], [ %13, %Vec_PtrPush.exit22 ]
  %.val14 = load ptr, ptr %6, align 8, !tbaa !9
  %12 = getelementptr inbounds nuw ptr, ptr %.val14, i64 %indvars.iv
  %13 = load ptr, ptr %12, align 8, !tbaa !11
  %14 = tail call ptr @Llb_ManCutSupp(ptr noundef %0, ptr noundef %.01324, ptr noundef %13)
  %15 = icmp eq i32 %11, %10
  br i1 %15, label %16, label %.Vec_PtrGrow.exit11_crit_edge.i16

.Vec_PtrGrow.exit11_crit_edge.i16:                ; preds = %.lr.ph
  %.pre.i18 = load ptr, ptr %5, align 8, !tbaa !9
  br label %Vec_PtrPush.exit22

16:                                               ; preds = %.lr.ph
  %17 = icmp slt i32 %10, 16
  br i1 %17, label %18, label %25

18:                                               ; preds = %16
  %19 = load ptr, ptr %5, align 8, !tbaa !9
  %.not9.i.i20 = icmp eq ptr %19, null
  br i1 %.not9.i.i20, label %22, label %20

20:                                               ; preds = %18
  %21 = tail call dereferenceable_or_null(128) ptr @realloc(ptr noundef nonnull %19, i64 noundef 128) #21
  br label %Vec_PtrGrow.exit.i21

22:                                               ; preds = %18
  %23 = tail call noalias dereferenceable_or_null(128) ptr @malloc(i64 noundef 128) #20
  br label %Vec_PtrGrow.exit.i21

Vec_PtrGrow.exit.i21:                             ; preds = %22, %20
  %24 = phi ptr [ %21, %20 ], [ %23, %22 ]
  store ptr %24, ptr %5, align 8, !tbaa !9
  store i32 16, ptr %2, align 8, !tbaa !3
  br label %Vec_PtrPush.exit22

25:                                               ; preds = %16
  %26 = shl nuw nsw i32 %10, 1
  %27 = load ptr, ptr %5, align 8, !tbaa !9
  %.not9.i10.i19 = icmp eq ptr %27, null
  %28 = zext nneg i32 %26 to i64
  %29 = shl nuw nsw i64 %28, 3
  br i1 %.not9.i10.i19, label %32, label %30

30:                                               ; preds = %25
  %31 = tail call ptr @realloc(ptr noundef nonnull %27, i64 noundef %29) #21
  br label %34

32:                                               ; preds = %25
  %33 = tail call noalias ptr @malloc(i64 noundef %29) #20
  br label %34

34:                                               ; preds = %32, %30
  %35 = phi ptr [ %31, %30 ], [ %33, %32 ]
  store ptr %35, ptr %5, align 8, !tbaa !9
  store i32 %26, ptr %2, align 8, !tbaa !3
  br label %Vec_PtrPush.exit22

Vec_PtrPush.exit22:                               ; preds = %.Vec_PtrGrow.exit11_crit_edge.i16, %Vec_PtrGrow.exit.i21, %34
  %36 = phi i32 [ %10, %.Vec_PtrGrow.exit11_crit_edge.i16 ], [ %26, %34 ], [ 16, %Vec_PtrGrow.exit.i21 ]
  %37 = phi ptr [ %.pre.i18, %.Vec_PtrGrow.exit11_crit_edge.i16 ], [ %35, %34 ], [ %24, %Vec_PtrGrow.exit.i21 ]
  %38 = add nuw nsw i32 %11, 1
  store i32 %38, ptr %3, align 4, !tbaa !10
  %39 = zext nneg i32 %11 to i64
  %40 = getelementptr inbounds nuw ptr, ptr %37, i64 %39
  store ptr %14, ptr %40, align 8, !tbaa !11
  %indvars.iv.next = add nuw nsw i64 %indvars.iv, 1
  %.val15 = load i32, ptr %7, align 4, !tbaa !10
  %41 = sext i32 %.val15 to i64
  %42 = icmp slt i64 %indvars.iv.next, %41
  br i1 %42, label %.lr.ph, label %.critedge, !llvm.loop !12

.critedge:                                        ; preds = %Vec_PtrPush.exit22, %Vec_PtrPush.exit
  ret ptr %2
}